target datalayout = "e-m:e-p270:32:32-p271:32:32-p272:64:64-i64:64-i128:128-f80:128-n8:16:32:64-S128"
target triple = "x86_64-pc-linux-gnu"

; Function Attrs: nounwind uwtable
define void @PGTYPESdate_julmdy(i64 noundef %0, ptr noundef %1) #0 {
  %3 = alloca i64, align 8
  %4 = alloca ptr, align 8
  %5 = alloca i32, align 4
  %6 = alloca i32, align 4
  %7 = alloca i32, align 4
  store i64 %0, ptr %3, align 8
  store ptr %1, ptr %4, align 8
  call void @llvm.lifetime.start.p0(i64 4, ptr %5) #7
  call void @llvm.lifetime.start.p0(i64 4, ptr %6) #7
  call void @llvm.lifetime.start.p0(i64 4, ptr %7) #7
  %8 = load i64, ptr %3, align 8
  %9 = call i32 @date2j(i32 noundef 2000, i32 noundef 1, i32 noundef 1)
  %10 = sext i32 %9 to i64
  %11 = add i64 %8, %10
  %12 = trunc i64 %11 to i32
  call void @j2date(i32 noundef %12, ptr noundef %5, ptr noundef %6, ptr noundef %7)
  %13 = load i32, ptr %6, align 4
  %14 = load ptr, ptr %4, align 8
  %15 = getelementptr inbounds i32, ptr %14, i64 0
  store i32 %13, ptr %15, align 4
  %16 = load i32, ptr %7, align 4
  %17 = load ptr, ptr %4, align 8
  %18 = getelementptr inbounds i32, ptr %17, i64 1
  store i32 %16, ptr %18, align 4
  %19 = load i32, ptr %5, align 4
  %20 = load ptr, ptr %4, align 8
  %21 = getelementptr inbounds i32, ptr %20, i64 2
  store i32 %19, ptr %21, align 4
  call void @llvm.lifetime.end.p0(i64 4, ptr %7) #7
  call void @llvm.lifetime.end.p0(i64 4, ptr %6) #7
  call void @llvm.lifetime.end.p0(i64 4, ptr %5) #7
  ret void
}