; Function Attrs: nounwind uwtable
define void @PGTYPESdate_julmdy(i64 noundef %0, ptr noundef writeonly captures(none) initializes((0, 12)) %1) local_unnamed_addr #0 {
  %3 = alloca i32, align 4
  %4 = alloca i32, align 4
  %5 = alloca i32, align 4
  call void @llvm.lifetime.start.p0(i64 4, ptr nonnull %3) #12
  call void @llvm.lifetime.start.p0(i64 4, ptr nonnull %4) #12
  call void @llvm.lifetime.start.p0(i64 4, ptr nonnull %5) #12
  %6 = tail call i32 @date2j(i32 noundef 2000, i32 noundef 1, i32 noundef 1) #12
  %7 = trunc i64 %0 to i32
  %8 = add i32 %6, %7
  call void @j2date(i32 noundef %8, ptr noundef nonnull %3, ptr noundef nonnull %4, ptr noundef nonnull %5) #12
  %9 = load i32, ptr %4, align 4
  store i32 %9, ptr %1, align 4
  %10 = load i32, ptr %5, align 4
  %11 = getelementptr inbounds nuw i8, ptr %1, i64 4
  store i32 %10, ptr %11, align 4
  %12 = load i32, ptr %3, align 4
  %13 = getelementptr inbounds nuw i8, ptr %1, i64 8
  store i32 %12, ptr %13, align 4
  call void @llvm.lifetime.end.p0(i64 4, ptr nonnull %5) #12
  call void @llvm.lifetime.end.p0(i64 4, ptr nonnull %4) #12
  call void @llvm.lifetime.end.p0(i64 4, ptr nonnull %3) #12
  ret void
}